; ModuleID = 'source-C-CXX/35/1396.c'
source_filename = "source-C-CXX/35/1396.c"
target datalayout = "e-m:e-p270:32:32-p271:32:32-p272:64:64-i64:64-f80:128-n8:16:32:64-S128"
target triple = "x86_64-pc-linux-gnu"

@.str = private unnamed_addr constant [6 x i8] c"%s %s\00", align 1
@.str.1 = private unnamed_addr constant [3 x i8] c"NO\00", align 1
@.str.2 = private unnamed_addr constant [4 x i8] c"YES\00", align 1

; Function Attrs: mustprogress nofree norecurse nosync nounwind readonly sspstrong uwtable willreturn
define dso_local i32 @compare(i8* nocapture readonly %0, i8* nocapture readonly %1) #0 {
  %3 = load i8, i8* %1, align 1, !tbaa !5
  %4 = sext i8 %3 to i32
  %5 = load i8, i8* %0, align 1, !tbaa !5
  %6 = sext i8 %5 to i32
  %7 = sub nsw i32 %4, %6
  ret i32 %7
}

; Function Attrs: nofree nounwind sspstrong uwtable
define dso_local i32 @main() local_unnamed_addr #1 {
  %1 = alloca [100 x i8], align 16
  %2 = alloca [100 x i8], align 16
  %3 = getelementptr inbounds [100 x i8], [100 x i8]* %1, i64 0, i64 0
  call void @llvm.lifetime.start.p0i8(i64 100, i8* nonnull %3) #6
  %4 = getelementptr inbounds [100 x i8], [100 x i8]* %2, i64 0, i64 0
  call void @llvm.lifetime.start.p0i8(i64 100, i8* nonnull %4) #6
  %5 = call i32 (i8*, ...) @__isoc99_scanf(i8* getelementptr inbounds ([6 x i8], [6 x i8]* @.str, i64 0, i64 0), i8* nonnull %3, i8* nonnull %4)
  %6 = call i64 @strlen(i8* noundef nonnull %3) #7
  %7 = call i64 @strlen(i8* noundef nonnull %4) #7
  %8 = icmp eq i64 %6, %7
  br i1 %8, label %9, label %28

9:                                                ; preds = %0
  call void @qsort(i8* nonnull %3, i64 %6, i64 1, i32 (i8*, i8*)* nonnull @compare) #6
  %10 = call i64 @strlen(i8* noundef nonnull %3) #7
  call void @qsort(i8* nonnull %4, i64 %10, i64 1, i32 (i8*, i8*)* nonnull @compare) #6
  %11 = call i64 @strlen(i8* noundef nonnull %3) #7
  %12 = icmp eq i64 %11, 0
  br i1 %12, label %28, label %13

13:                                               ; preds = %9, %20
  %14 = phi i64 [ %21, %20 ], [ 0, %9 ]
  %15 = getelementptr inbounds [100 x i8], [100 x i8]* %1, i64 0, i64 %14
  %16 = load i8, i8* %15, align 1, !tbaa !5
  %17 = getelementptr inbounds [100 x i8], [100 x i8]* %2, i64 0, i64 %14
  %18 = load i8, i8* %17, align 1, !tbaa !5
  %19 = icmp eq i8 %16, %18
  br i1 %19, label %20, label %23

20:                                               ; preds = %13
  %21 = add nuw i64 %14, 1
  %22 = icmp eq i64 %21, %11
  br i1 %22, label %23, label %13, !llvm.loop !8

23:                                               ; preds = %20, %13
  %24 = phi i64 [ %11, %20 ], [ %14, %13 ]
  %25 = and i64 %24, 4294967295
  %26 = icmp eq i64 %11, %25
  %27 = select i1 %26, i8* getelementptr inbounds ([4 x i8], [4 x i8]* @.str.2, i64 0, i64 0), i8* getelementptr inbounds ([3 x i8], [3 x i8]* @.str.1, i64 0, i64 0)
  br label %28

28:                                               ; preds = %23, %9, %0
  %29 = phi i8* [ getelementptr inbounds ([3 x i8], [3 x i8]* @.str.1, i64 0, i64 0), %0 ], [ getelementptr inbounds ([4 x i8], [4 x i8]* @.str.2, i64 0, i64 0), %9 ], [ %27, %23 ]
  %30 = call i32 (i8*, ...) @printf(i8* nonnull dereferenceable(1) %29)
  call void @llvm.lifetime.end.p0i8(i64 100, i8* nonnull %4) #6
  call void @llvm.lifetime.end.p0i8(i64 100, i8* nonnull %3) #6
  ret i32 0
}

; Function Attrs: argmemonly mustprogress nofree nosync nounwind willreturn
declare void @llvm.lifetime.start.p0i8(i64 immarg, i8* nocapture) #2

; Function Attrs: nofree nounwind
declare noundef i32 @__isoc99_scanf(i8* nocapture noundef readonly, ...) local_unnamed_addr #3

; Function Attrs: argmemonly mustprogress nofree nounwind readonly willreturn
declare i64 @strlen(i8* nocapture) local_unnamed_addr #4

; Function Attrs: nofree nounwind
declare noundef i32 @printf(i8* nocapture noundef readonly, ...) local_unnamed_addr #3

; Function Attrs: nofree
declare void @qsort(i8* noundef, i64 noundef, i64 noundef, i32 (i8*, i8*)* nocapture noundef) local_unnamed_addr #5

; Function Attrs: argmemonly mustprogress nofree nosync nounwind willreturn
declare void @llvm.lifetime.end.p0i8(i64 immarg, i8* nocapture) #2


!llvm.module.flags = !{!0, !1, !2, !3}
!llvm.ident = !{!4}

!0 = !{i32 1, !"wchar_size", i32 4}
!1 = !{i32 7, !"PIC Level", i32 2}
!2 = !{i32 7, !"PIE Level", i32 2}
!3 = !{i32 7, !"uwtable", i32 1}
!4 = !{!"clang version 13.0.0"}
!5 = !{!6, !6, i64 0}
!6 = !{!"omnipotent char", !7, i64 0}
!7 = !{!"Simple C/C++ TBAA"}
!8 = distinct !{!8, !9}
!9 = !{!"llvm.loop.mustprogress"}
